target datalayout = "e-m:e-p270:32:32-p271:32:32-p272:64:64-i64:64-i128:128-f80:128-n8:16:32:64-S128"
target triple = "x86_64-pc-linux-gnu"

%struct.attr_check = type { i32, i32, ptr, i32, ptr, ptr }

@.str.19 = private unnamed_addr constant [27 x i8] c"size_t overflow: %lu * %lu\00", align 1

; Function Attrs: inlinehint nounwind uwtable
define internal void @copy_array(ptr noundef %0, ptr noundef %1, i64 noundef %2, i64 noundef %3) #5 {
  %5 = alloca ptr, align 8
  %6 = alloca ptr, align 8
  %7 = alloca i64, align 8
  %8 = alloca i64, align 8
  store ptr %0, ptr %5, align 8, !tbaa !50
  store ptr %1, ptr %6, align 8, !tbaa !50
  store i64 %2, ptr %7, align 8, !tbaa !11
  store i64 %3, ptr %8, align 8, !tbaa !11
  %9 = load i64, ptr %7, align 8, !tbaa !11
  %10 = icmp ne i64 %9, 0
  br i1 %10, label %11, label %17

11:                                               ; preds = %4
  %12 = load ptr, ptr %5, align 8, !tbaa !50
  %13 = load ptr, ptr %6, align 8, !tbaa !50
  %14 = load i64, ptr %8, align 8, !tbaa !11
  %15 = load i64, ptr %7, align 8, !tbaa !11
  %16 = call i64 @st_mult(i64 noundef %14, i64 noundef %15)
  call void @llvm.memcpy.p0.p0.i64(ptr align 1 %12, ptr align 1 %13, i64 %16, i1 false)
  br label %17

17:                                               ; preds = %11, %4
  ret void
}

; Function Attrs: inlinehint nounwind uwtable
define internal i64 @st_mult(i64 noundef %0, i64 noundef %1) #5 {
  %3 = alloca i64, align 8
  %4 = alloca i64, align 8
  store i64 %0, ptr %3, align 8, !tbaa !11
  store i64 %1, ptr %4, align 8, !tbaa !11
  %5 = load i64, ptr %3, align 8, !tbaa !11
  %6 = icmp ne i64 %5, 0
  br i1 %6, label %7, label %15

7:                                                ; preds = %2
  %8 = load i64, ptr %4, align 8, !tbaa !11
  %9 = load i64, ptr %3, align 8, !tbaa !11
  %10 = udiv i64 -1, %9
  %11 = icmp ugt i64 %8, %10
  br i1 %11, label %12, label %15

12:                                               ; preds = %7
  %13 = load i64, ptr %3, align 8, !tbaa !11
  %14 = load i64, ptr %4, align 8, !tbaa !11
  call void (ptr, ...) @die(ptr noundef @.str.19, i64 noundef %13, i64 noundef %14) #12
  unreachable

15:                                               ; preds = %7, %2
  %16 = load i64, ptr %3, align 8, !tbaa !11
  %17 = load i64, ptr %4, align 8, !tbaa !11
  %18 = mul i64 %16, %17
  ret i64 %18
}

; Function Attrs: nounwind uwtable
define dso_local ptr @attr_check_dup(ptr noundef %0) #0 {
  %2 = alloca ptr, align 8
  %3 = alloca ptr, align 8
  %4 = alloca ptr, align 8
  %5 = alloca i32, align 4
  %6 = alloca i64, align 8
  store ptr %0, ptr %3, align 8, !tbaa !32
  call void @llvm.lifetime.start.p0(i64 8, ptr %4) #11
  %7 = load ptr, ptr %3, align 8, !tbaa !32
  %8 = icmp ne ptr %7, null
  br i1 %8, label %10, label %9

9:                                                ; preds = %1
  store ptr null, ptr %2, align 8
  store i32 1, ptr %5, align 4
  br label %39

10:                                               ; preds = %1
  %11 = call ptr @attr_check_alloc()
  store ptr %11, ptr %4, align 8, !tbaa !32
  %12 = load ptr, ptr %3, align 8, !tbaa !32
  %13 = getelementptr inbounds nuw %struct.attr_check, ptr %12, i32 0, i32 0
  %14 = load i32, ptr %13, align 8, !tbaa !40
  %15 = load ptr, ptr %4, align 8, !tbaa !32
  %16 = getelementptr inbounds nuw %struct.attr_check, ptr %15, i32 0, i32 0
  store i32 %14, ptr %16, align 8, !tbaa !40
  %17 = load ptr, ptr %3, align 8, !tbaa !32
  %18 = getelementptr inbounds nuw %struct.attr_check, ptr %17, i32 0, i32 1
  %19 = load i32, ptr %18, align 4, !tbaa !45
  %20 = load ptr, ptr %4, align 8, !tbaa !32
  %21 = getelementptr inbounds nuw %struct.attr_check, ptr %20, i32 0, i32 1
  store i32 %19, ptr %21, align 4, !tbaa !45
  br label %22

22:                                               ; preds = %10
  call void @llvm.lifetime.start.p0(i64 8, ptr %6) #11
  %23 = load ptr, ptr %4, align 8, !tbaa !32
  %24 = getelementptr inbounds nuw %struct.attr_check, ptr %23, i32 0, i32 0
  %25 = load i32, ptr %24, align 8, !tbaa !40
  %26 = sext i32 %25 to i64
  store i64 %26, ptr %6, align 8, !tbaa !11
  %27 = load i64, ptr %6, align 8, !tbaa !11
  %28 = call i64 @st_mult(i64 noundef 16, i64 noundef %27)
  %29 = call ptr @xmalloc(i64 noundef %28)
  %30 = load ptr, ptr %4, align 8, !tbaa !32
  %31 = getelementptr inbounds nuw %struct.attr_check, ptr %30, i32 0, i32 2
  store ptr %29, ptr %31, align 8, !tbaa !46
  %32 = load ptr, ptr %3, align 8, !tbaa !32
  %33 = getelementptr inbounds nuw %struct.attr_check, ptr %32, i32 0, i32 2
  %34 = load ptr, ptr %33, align 8, !tbaa !46
  %35 = load i64, ptr %6, align 8, !tbaa !11
  call void @copy_array(ptr noundef %29, ptr noundef %34, i64 noundef %35, i64 noundef 16)
  call void @llvm.lifetime.end.p0(i64 8, ptr %6) #11
  br label %36

36:                                               ; preds = %22
  br label %37

37:                                               ; preds = %36
  %38 = load ptr, ptr %4, align 8, !tbaa !32
  store ptr %38, ptr %2, align 8
  store i32 1, ptr %5, align 4
  br label %39

39:                                               ; preds = %37, %9
  call void @llvm.lifetime.end.p0(i64 8, ptr %4) #11
  %40 = load ptr, ptr %2, align 8
  ret ptr %40
}