; Function Attrs: nounwind uwtable
define dso_local noundef ptr @attr_check_dup(ptr noundef readonly %0) local_unnamed_addr #1 {
  %.not = icmp eq ptr %0, null
  br i1 %.not, label %copy_array.exit, label %2

2:                                                ; preds = %1
  %3 = tail call ptr @attr_check_alloc()
  %4 = load i32, ptr %0, align 8, !tbaa !45
  store i32 %4, ptr %3, align 8, !tbaa !45
  %5 = getelementptr inbounds nuw i8, ptr %0, i64 4
  %6 = load i32, ptr %5, align 4, !tbaa !50
  %7 = getelementptr inbounds nuw i8, ptr %3, i64 4
  store i32 %6, ptr %7, align 4, !tbaa !50
  %8 = sext i32 %4 to i64
  %mul.ov.i = icmp slt i32 %4, 0
  br i1 %mul.ov.i, label %9, label %st_mult.exit

9:                                                ; preds = %2
  tail call void (ptr, ...) @die(ptr noundef nonnull @.str.19, i64 noundef 16, i64 noundef %8) #22
  unreachable

st_mult.exit:                                     ; preds = %2
  %10 = shl nuw nsw i64 %8, 4
  %11 = tail call ptr @xmalloc(i64 noundef %10) #21
  %12 = getelementptr inbounds nuw i8, ptr %3, i64 8
  store ptr %11, ptr %12, align 8, !tbaa !51
  %.not.i = icmp eq i32 %4, 0
  br i1 %.not.i, label %copy_array.exit, label %st_mult.exit.i

st_mult.exit.i:                                   ; preds = %st_mult.exit
  %13 = getelementptr inbounds nuw i8, ptr %0, i64 8
  %14 = load ptr, ptr %13, align 8, !tbaa !51
  tail call void @llvm.memcpy.p0.p0.i64(ptr align 1 %11, ptr readonly align 1 %14, i64 %10, i1 false)
  br label %copy_array.exit

copy_array.exit:                                  ; preds = %st_mult.exit.i, %st_mult.exit, %1
  %.0 = phi ptr [ null, %1 ], [ %3, %st_mult.exit ], [ %3, %st_mult.exit.i ]
  ret ptr %.0
}